target datalayout = "e-m:e-p270:32:32-p271:32:32-p272:64:64-i64:64-i128:128-f80:128-n8:16:32:64-S128"
target triple = "x86_64-pc-linux-gnu"

@PyExc_ValueError = external global ptr, align 8
@.str = private unnamed_addr constant [23 x i8] c"Invalid UTF-8 sequence\00", align 1

; Function Attrs: nounwind uwtable
define hidden i64 @_PyPegen_byte_offset_to_character_offset_line(ptr noundef %0, i64 noundef %1, i64 noundef %2) #0 {
  %4 = alloca i64, align 8
  %5 = alloca ptr, align 8
  %6 = alloca i64, align 8
  %7 = alloca i64, align 8
  %8 = alloca ptr, align 8
  %9 = alloca i64, align 8
  %10 = alloca i32, align 4
  %11 = alloca i32, align 4
  store ptr %0, ptr %5, align 8, !tbaa !19
  store i64 %1, ptr %6, align 8, !tbaa !20
  store i64 %2, ptr %7, align 8, !tbaa !20
  call void @llvm.lifetime.start.p0(i64 8, ptr %8) #10
  %12 = load ptr, ptr %5, align 8, !tbaa !19
  %13 = call ptr @PyUnicode_AsUTF8(ptr noundef %12)
  store ptr %13, ptr %8, align 8, !tbaa !21
  call void @llvm.lifetime.start.p0(i64 8, ptr %9) #10
  store i64 0, ptr %9, align 8, !tbaa !20
  br label %14

14:                                               ; preds = %60, %3
  %15 = load i64, ptr %6, align 8, !tbaa !20
  %16 = load i64, ptr %7, align 8, !tbaa !20
  %17 = icmp slt i64 %15, %16
  br i1 %17, label %18, label %61

18:                                               ; preds = %14
  call void @llvm.lifetime.start.p0(i64 4, ptr %10) #10
  %19 = load ptr, ptr %8, align 8, !tbaa !21
  %20 = load i64, ptr %6, align 8, !tbaa !20
  %21 = getelementptr i8, ptr %19, i64 %20
  %22 = load i8, ptr %21, align 1, !tbaa !23
  %23 = zext i8 %22 to i32
  store i32 %23, ptr %10, align 4, !tbaa !18
  %24 = load i32, ptr %10, align 4, !tbaa !18
  %25 = icmp ult i32 %24, 128
  br i1 %25, label %26, label %29

26:                                               ; preds = %18
  %27 = load i64, ptr %6, align 8, !tbaa !20
  %28 = add i64 %27, 1
  store i64 %28, ptr %6, align 8, !tbaa !20
  br label %55

29:                                               ; preds = %18
  %30 = load i32, ptr %10, align 4, !tbaa !18
  %31 = and i32 %30, 224
  %32 = icmp eq i32 %31, 192
  br i1 %32, label %33, label %36

33:                                               ; preds = %29
  %34 = load i64, ptr %6, align 8, !tbaa !20
  %35 = add i64 %34, 2
  store i64 %35, ptr %6, align 8, !tbaa !20
  br label %54

36:                                               ; preds = %29
  %37 = load i32, ptr %10, align 4, !tbaa !18
  %38 = and i32 %37, 240
  %39 = icmp eq i32 %38, 224
  br i1 %39, label %40, label %43

40:                                               ; preds = %36
  %41 = load i64, ptr %6, align 8, !tbaa !20
  %42 = add i64 %41, 3
  store i64 %42, ptr %6, align 8, !tbaa !20
  br label %53

43:                                               ; preds = %36
  %44 = load i32, ptr %10, align 4, !tbaa !18
  %45 = and i32 %44, 248
  %46 = icmp eq i32 %45, 240
  br i1 %46, label %47, label %50

47:                                               ; preds = %43
  %48 = load i64, ptr %6, align 8, !tbaa !20
  %49 = add i64 %48, 4
  store i64 %49, ptr %6, align 8, !tbaa !20
  br label %52

50:                                               ; preds = %43
  %51 = load ptr, ptr @PyExc_ValueError, align 8, !tbaa !19
  call void @PyErr_SetString(ptr noundef %51, ptr noundef @.str)
  store i64 -1, ptr %4, align 8
  store i32 1, ptr %11, align 4
  br label %58

52:                                               ; preds = %47
  br label %53

53:                                               ; preds = %52, %40
  br label %54

54:                                               ; preds = %53, %33
  br label %55

55:                                               ; preds = %54, %26
  %56 = load i64, ptr %9, align 8, !tbaa !20
  %57 = add i64 %56, 1
  store i64 %57, ptr %9, align 8, !tbaa !20
  store i32 0, ptr %11, align 4
  br label %58

58:                                               ; preds = %55, %50
  call void @llvm.lifetime.end.p0(i64 4, ptr %10) #10
  %59 = load i32, ptr %11, align 4
  switch i32 %59, label %63 [
    i32 0, label %60
  ]

60:                                               ; preds = %58
  br label %14, !llvm.loop !24

61:                                               ; preds = %14
  %62 = load i64, ptr %9, align 8, !tbaa !20
  store i64 %62, ptr %4, align 8
  store i32 1, ptr %11, align 4
  br label %63

63:                                               ; preds = %61, %58
  call void @llvm.lifetime.end.p0(i64 8, ptr %9) #10
  call void @llvm.lifetime.end.p0(i64 8, ptr %8) #10
  %64 = load i64, ptr %4, align 8
  ret i64 %64
}