; Function Attrs: nounwind uwtable
define hidden i64 @_PyPegen_byte_offset_to_character_offset_line(ptr noundef %0, i64 noundef %1, i64 noundef %2) local_unnamed_addr #1 {
  %4 = tail call ptr @PyUnicode_AsUTF8(ptr noundef %0) #13
  %5 = icmp slt i64 %1, %2
  br i1 %5, label %.lr.ph, label %.loopexit

.lr.ph:                                           ; preds = %3, %20
  %.01728 = phi i64 [ %22, %20 ], [ 0, %3 ]
  %.01927 = phi i64 [ %21, %20 ], [ %1, %3 ]
  %6 = getelementptr i8, ptr %4, i64 %.01927
  %7 = load i8, ptr %6, align 1, !tbaa !18
  %8 = zext i8 %7 to i32
  %9 = icmp sgt i8 %7, -1
  br i1 %9, label %20, label %10

10:                                               ; preds = %.lr.ph
  %11 = and i32 %8, 224
  %12 = icmp eq i32 %11, 192
  br i1 %12, label %20, label %13

13:                                               ; preds = %10
  %14 = and i32 %8, 240
  %15 = icmp eq i32 %14, 224
  br i1 %15, label %20, label %16

16:                                               ; preds = %13
  %17 = and i32 %8, 248
  %18 = icmp eq i32 %17, 240
  br i1 %18, label %20, label %.thread

.thread:                                          ; preds = %16
  %19 = load ptr, ptr @PyExc_ValueError, align 8, !tbaa !19
  tail call void @PyErr_SetString(ptr noundef %19, ptr noundef nonnull @.str) #13
  br label %.loopexit

20:                                               ; preds = %16, %13, %10, %.lr.ph
  %.sink = phi i64 [ 1, %.lr.ph ], [ 2, %10 ], [ 3, %13 ], [ 4, %16 ]
  %21 = add i64 %.01927, %.sink
  %22 = add i64 %.01728, 1
  %23 = icmp slt i64 %21, %2
  br i1 %23, label %.lr.ph, label %.loopexit, !llvm.loop !20

.loopexit:                                        ; preds = %20, %3, %.thread
  %.2 = phi i64 [ -1, %.thread ], [ 0, %3 ], [ %22, %20 ]
  ret i64 %.2
}